; Function Attrs: nofree norecurse nosync nounwind memory(argmem: read) uwtable
define zeroext i16 @crc16_iso14443a(ptr noundef readonly captures(none) %0, i32 noundef %1) local_unnamed_addr #0 {
  %.not8.i = icmp eq i32 %1, 0
  br i1 %.not8.i, label %crc16_reflected.exit, label %.lr.ph.i

.lr.ph.i:                                         ; preds = %2, %.lr.ph.i
  %.011.i = phi i32 [ %10, %.lr.ph.i ], [ 25443, %2 ]
  %.0610.i = phi ptr [ %4, %.lr.ph.i ], [ %0, %2 ]
  %.079.i = phi i32 [ %3, %.lr.ph.i ], [ %1, %2 ]
  %3 = add i32 %.079.i, -1
  %4 = getelementptr i8, ptr %.0610.i, i64 1
  %5 = load i8, ptr %.0610.i, align 1
  %.0.tr.i = trunc i32 %.011.i to i8
  %.narrow.i = xor i8 %5, %.0.tr.i
  %6 = zext i8 %.narrow.i to i64
  %7 = getelementptr i32, ptr @crc16_ccitt_table_reverse, i64 %6
  %8 = load i32, ptr %7, align 4
  %9 = lshr i32 %.011.i, 8
  %10 = xor i32 %8, %9
  %.not.i = icmp eq i32 %3, 0
  br i1 %.not.i, label %._crit_edge.loopexit.i, label %.lr.ph.i, !llvm.loop !4

._crit_edge.loopexit.i:                           ; preds = %.lr.ph.i
  %11 = trunc i32 %10 to i16
  br label %crc16_reflected.exit

crc16_reflected.exit:                             ; preds = %2, %._crit_edge.loopexit.i
  %.0.lcssa.i = phi i16 [ 25443, %2 ], [ %11, %._crit_edge.loopexit.i ]
  ret i16 %.0.lcssa.i
}